; Function Attrs: nounwind sspstrong uwtable
define internal void @vhost_vdpa_net_cvq_stop(ptr noundef %nc) #0 {
entry:
  %0 = load ptr, ptr %nc, align 8
  %1 = load i32, ptr %0, align 8
  %cmp = icmp eq i32 %1, 13
  br i1 %cmp, label %if.end, label %if.else

if.else:                                          ; preds = %entry
  tail call void @__assert_fail(ptr noundef nonnull @.str, ptr noundef nonnull @.str.1, i32 noundef 621, ptr noundef nonnull @__PRETTY_FUNCTION__.vhost_vdpa_net_cvq_stop) #12
  unreachable

if.end:                                           ; preds = %entry
  %shadow_vqs_enabled = getelementptr inbounds nuw i8, ptr %nc, i64 624
  %2 = load i8, ptr %shadow_vqs_enabled, align 16
  %tobool = trunc i8 %2 to i1
  br i1 %tobool, label %if.end5, label %if.end.i

if.end5:                                          ; preds = %if.end
  %vhost_vdpa = getelementptr inbounds nuw i8, ptr %nc, i64 384
  %cvq_cmd_out_buffer = getelementptr inbounds nuw i8, ptr %nc, i64 295696
  %3 = load ptr, ptr %cvq_cmd_out_buffer, align 16
  tail call fastcc void @vhost_vdpa_cvq_unmap_buf(ptr noundef nonnull %vhost_vdpa, ptr noundef %3)
  %status = getelementptr inbounds nuw i8, ptr %nc, i64 295704
  %4 = load ptr, ptr %status, align 8
  tail call fastcc void @vhost_vdpa_cvq_unmap_buf(ptr noundef nonnull %vhost_vdpa, ptr noundef %4)
  %.pre = load ptr, ptr %nc, align 8
  %.pre7 = load i32, ptr %.pre, align 8
  %5 = icmp eq i32 %.pre7, 13
  br i1 %5, label %if.end.i, label %if.else.i

if.else.i:                                        ; preds = %if.end5
  tail call void @__assert_fail(ptr noundef nonnull @.str, ptr noundef nonnull @.str.1, i32 noundef 408, ptr noundef nonnull @__PRETTY_FUNCTION__.vhost_vdpa_net_client_stop) #12
  unreachable

if.end.i:                                         ; preds = %if.end, %if.end5
  %index.i = getelementptr inbounds nuw i8, ptr %nc, i64 388
  %6 = load i32, ptr %index.i, align 4
  %cmp2.i = icmp eq i32 %6, 0
  br i1 %cmp2.i, label %if.then3.i, label %if.end4.i

if.then3.i:                                       ; preds = %if.end.i
  %migration_state.i = getelementptr inbounds nuw i8, ptr %nc, i64 295664
  tail call void @migration_remove_notifier(ptr noundef nonnull %migration_state.i) #13
  br label %if.end4.i

if.end4.i:                                        ; preds = %if.then3.i, %if.end.i
  %dev6.i = getelementptr inbounds nuw i8, ptr %nc, i64 664
  %7 = load ptr, ptr %dev6.i, align 8
  %vq_index.i = getelementptr inbounds nuw i8, ptr %7, i64 444
  %8 = load i32, ptr %vq_index.i, align 4
  %nvqs.i = getelementptr inbounds nuw i8, ptr %7, i64 440
  %9 = load i32, ptr %nvqs.i, align 8
  %add.i = add i32 %9, %8
  %vq_index_end.i = getelementptr inbounds nuw i8, ptr %7, i64 448
  %10 = load i32, ptr %vq_index_end.i, align 8
  %cmp7.i = icmp eq i32 %add.i, %10
  %iova_tree.i = getelementptr inbounds nuw i8, ptr %nc, i64 632
  br i1 %cmp7.i, label %do.body.i, label %if.else12.i

do.body.i:                                        ; preds = %if.end4.i
  %11 = load ptr, ptr %iova_tree.i, align 8
  %tobool.not.i = icmp eq ptr %11, null
  br i1 %tobool.not.i, label %vhost_vdpa_net_client_stop.exit, label %if.then10.i

if.then10.i:                                      ; preds = %do.body.i
  store ptr null, ptr %iova_tree.i, align 8
  tail call void @vhost_iova_tree_delete(ptr noundef nonnull %11) #13
  br label %vhost_vdpa_net_client_stop.exit

if.else12.i:                                      ; preds = %if.end4.i
  store ptr null, ptr %iova_tree.i, align 8
  br label %vhost_vdpa_net_client_stop.exit

vhost_vdpa_net_client_stop.exit:                  ; preds = %do.body.i, %if.then10.i, %if.else12.i
  ret void
}